target datalayout = "e-m:e-p270:32:32-p271:32:32-p272:64:64-i64:64-i128:128-f80:128-n8:16:32:64-S128"
target triple = "x86_64-pc-linux-gnu"

%struct.H5FL_reg_head_t = type { i8, i32, i32, ptr, i64, ptr }
%struct.H5T_t = type { %struct.H5O_shared_t, ptr, %struct.H5O_loc_t, %struct.H5G_name_t, ptr }
%struct.H5O_shared_t = type { i32, ptr, i32, %union.anon }
%union.anon = type { %struct.H5O_mesg_loc_t }
%struct.H5O_mesg_loc_t = type { i32, i64 }
%struct.H5O_loc_t = type { ptr, i64, i8 }
%struct.H5G_name_t = type { ptr, ptr, i32 }
%struct.H5T_shared_t = type { i64, i32, i32, i64, i32, i8, ptr, ptr, %union.anon.0 }
%union.anon.0 = type { %struct.H5T_array_t }
%struct.H5T_array_t = type { i64, i32, [32 x i64] }

@H5_H5T_t_reg_free_list = global %struct.H5FL_reg_head_t { i8 0, i32 0, i32 0, ptr @.str, i64 104, ptr null }, align 8
@H5_H5T_shared_t_reg_free_list = global %struct.H5FL_reg_head_t { i8 0, i32 0, i32 0, ptr @.str.1, i64 320, ptr null }, align 8
@.str.2 = private unnamed_addr constant [97 x i8] c"generated/home/dtcxzyw/WorkSpace/Projects/compilers/llvm-opt-benchmark/bench/hdf5/hdf5/src/H5T.c\00", align 1
@H5E_DATATYPE_g = external global i64, align 8
@H5E_CANTINIT_g = external global i64, align 8
@H5E_BADTYPE_g = external global i64, align 8
@H5E_CANTCOPY_g = external global i64, align 8
@H5E_CANTCLOSEOBJ_g = external global i64, align 8
@.str.220 = private unnamed_addr constant [33 x i8] c"unable to close owned VOL object\00", align 1
@__func__.H5T_copy = private unnamed_addr constant [9 x i8] c"H5T_copy\00", align 1
@.str.298 = private unnamed_addr constant [30 x i8] c"can't copy core datatype info\00", align 1
@.str.299 = private unnamed_addr constant [25 x i8] c"invalid copy method type\00", align 1
@.str.300 = private unnamed_addr constant [39 x i8] c"can't complete datatype initialization\00", align 1

; Function Attrs: nounwind uwtable
define ptr @H5T_copy(ptr noundef %0, i32 noundef %1) #0 {
  %3 = alloca ptr, align 8
  %4 = alloca i32, align 4
  %5 = alloca ptr, align 8
  %6 = alloca ptr, align 8
  %7 = alloca ptr, align 8
  %8 = alloca i8, align 1
  store ptr %0, ptr %3, align 8
  store i32 %1, ptr %4, align 4
  store ptr null, ptr %5, align 8
  store ptr null, ptr %7, align 8
  store i8 0, ptr %8, align 1
  %9 = load ptr, ptr %3, align 8
  %10 = call ptr @H5T__initiate_copy(ptr noundef %9)
  store ptr %10, ptr %5, align 8
  %11 = icmp eq ptr null, %10
  br i1 %11, label %12, label %27

12:                                               ; preds = %2
  br label %13

13:                                               ; preds = %12
  br label %14

14:                                               ; preds = %13
  br label %15

15:                                               ; preds = %14
  %16 = load i64, ptr @H5E_DATATYPE_g, align 8
  %17 = load i64, ptr @H5E_CANTCOPY_g, align 8
  %18 = call i32 (ptr, ptr, i32, i64, i64, ptr, ...) @H5E_printf_stack(ptr noundef @.str.2, ptr noundef @__func__.H5T_copy, i32 noundef 3808, i64 noundef %16, i64 noundef %17, ptr noundef @.str.298)
  br label %19

19:                                               ; preds = %15
  store i8 1, ptr %8, align 1
  %20 = load i8, ptr %8, align 1
  %21 = trunc i8 %20 to i1
  %22 = zext i1 %21 to i8
  store i8 %22, ptr %8, align 1
  br label %23

23:                                               ; preds = %19
  br label %24

24:                                               ; preds = %23
  store ptr null, ptr %7, align 8
  br label %100

25:                                               ; No predecessors!
  br label %26

26:                                               ; preds = %25
  br label %27

27:                                               ; preds = %26, %2
  %28 = load i32, ptr %4, align 4
  switch i32 %28, label %60 [
    i32 0, label %29
    i32 1, label %34
  ]

29:                                               ; preds = %27
  %30 = load ptr, ptr %5, align 8
  %31 = getelementptr inbounds %struct.H5T_t, ptr %30, i32 0, i32 1
  %32 = load ptr, ptr %31, align 8
  %33 = getelementptr inbounds %struct.H5T_shared_t, ptr %32, i32 0, i32 1
  store i32 0, ptr %33, align 8
  store ptr @H5T__copy_transient, ptr %6, align 8
  br label %75

34:                                               ; preds = %27
  %35 = load ptr, ptr %3, align 8
  %36 = getelementptr inbounds %struct.H5T_t, ptr %35, i32 0, i32 1
  %37 = load ptr, ptr %36, align 8
  %38 = getelementptr inbounds %struct.H5T_shared_t, ptr %37, i32 0, i32 1
  %39 = load i32, ptr %38, align 8
  %40 = icmp eq i32 4, %39
  br i1 %40, label %41, label %46

41:                                               ; preds = %34
  %42 = load ptr, ptr %5, align 8
  %43 = getelementptr inbounds %struct.H5T_t, ptr %42, i32 0, i32 1
  %44 = load ptr, ptr %43, align 8
  %45 = getelementptr inbounds %struct.H5T_shared_t, ptr %44, i32 0, i32 1
  store i32 3, ptr %45, align 8
  br label %59

46:                                               ; preds = %34
  %47 = load ptr, ptr %3, align 8
  %48 = getelementptr inbounds %struct.H5T_t, ptr %47, i32 0, i32 1
  %49 = load ptr, ptr %48, align 8
  %50 = getelementptr inbounds %struct.H5T_shared_t, ptr %49, i32 0, i32 1
  %51 = load i32, ptr %50, align 8
  %52 = icmp eq i32 2, %51
  br i1 %52, label %53, label %58

53:                                               ; preds = %46
  %54 = load ptr, ptr %5, align 8
  %55 = getelementptr inbounds %struct.H5T_t, ptr %54, i32 0, i32 1
  %56 = load ptr, ptr %55, align 8
  %57 = getelementptr inbounds %struct.H5T_shared_t, ptr %56, i32 0, i32 1
  store i32 1, ptr %57, align 8
  br label %58

58:                                               ; preds = %53, %46
  br label %59

59:                                               ; preds = %58, %41
  store ptr @H5T__copy_all, ptr %6, align 8
  br label %75

60:                                               ; preds = %27
  br label %61

61:                                               ; preds = %60
  br label %62

62:                                               ; preds = %61
  br label %63

63:                                               ; preds = %62
  %64 = load i64, ptr @H5E_DATATYPE_g, align 8
  %65 = load i64, ptr @H5E_BADTYPE_g, align 8
  %66 = call i32 (ptr, ptr, i32, i64, i64, ptr, ...) @H5E_printf_stack(ptr noundef @.str.2, ptr noundef @__func__.H5T_copy, i32 noundef 3833, i64 noundef %64, i64 noundef %65, ptr noundef @.str.299)
  br label %67

67:                                               ; preds = %63
  store i8 1, ptr %8, align 1
  %68 = load i8, ptr %8, align 1
  %69 = trunc i8 %68 to i1
  %70 = zext i1 %69 to i8
  store i8 %70, ptr %8, align 1
  br label %71

71:                                               ; preds = %67
  br label %72

72:                                               ; preds = %71
  store ptr null, ptr %7, align 8
  br label %100

73:                                               ; No predecessors!
  br label %74

74:                                               ; preds = %73
  br label %75

75:                                               ; preds = %74, %59, %29
  %76 = load ptr, ptr %5, align 8
  %77 = load ptr, ptr %3, align 8
  %78 = load i32, ptr %4, align 4
  %79 = icmp eq i32 %78, 0
  %80 = load ptr, ptr %6, align 8
  %81 = call i32 @H5T__complete_copy(ptr noundef %76, ptr noundef %77, ptr noundef null, i1 noundef zeroext %79, ptr noundef %80)
  %82 = icmp slt i32 %81, 0
  br i1 %82, label %83, label %98

83:                                               ; preds = %75
  br label %84

84:                                               ; preds = %83
  br label %85

85:                                               ; preds = %84
  br label %86

86:                                               ; preds = %85
  %87 = load i64, ptr @H5E_DATATYPE_g, align 8
  %88 = load i64, ptr @H5E_CANTINIT_g, align 8
  %89 = call i32 (ptr, ptr, i32, i64, i64, ptr, ...) @H5E_printf_stack(ptr noundef @.str.2, ptr noundef @__func__.H5T_copy, i32 noundef 3838, i64 noundef %87, i64 noundef %88, ptr noundef @.str.300)
  br label %90

90:                                               ; preds = %86
  store i8 1, ptr %8, align 1
  %91 = load i8, ptr %8, align 1
  %92 = trunc i8 %91 to i1
  %93 = zext i1 %92 to i8
  store i8 %93, ptr %8, align 1
  br label %94

94:                                               ; preds = %90
  br label %95

95:                                               ; preds = %94
  store ptr null, ptr %7, align 8
  br label %100

96:                                               ; No predecessors!
  br label %97

97:                                               ; preds = %96
  br label %98

98:                                               ; preds = %97, %75
  %99 = load ptr, ptr %5, align 8
  store ptr %99, ptr %7, align 8
  br label %100

100:                                              ; preds = %98, %95, %72, %24
  %101 = load ptr, ptr %7, align 8
  %102 = icmp eq ptr %101, null
  br i1 %102, label %103, label %144

103:                                              ; preds = %100
  %104 = load ptr, ptr %5, align 8
  %105 = icmp ne ptr %104, null
  br i1 %105, label %106, label %143

106:                                              ; preds = %103
  %107 = load ptr, ptr %5, align 8
  %108 = getelementptr inbounds %struct.H5T_t, ptr %107, i32 0, i32 1
  %109 = load ptr, ptr %108, align 8
  %110 = getelementptr inbounds %struct.H5T_shared_t, ptr %109, i32 0, i32 7
  %111 = load ptr, ptr %110, align 8
  %112 = icmp ne ptr %111, null
  br i1 %112, label %113, label %134

113:                                              ; preds = %106
  %114 = load ptr, ptr %5, align 8
  %115 = getelementptr inbounds %struct.H5T_t, ptr %114, i32 0, i32 1
  %116 = load ptr, ptr %115, align 8
  %117 = getelementptr inbounds %struct.H5T_shared_t, ptr %116, i32 0, i32 7
  %118 = load ptr, ptr %117, align 8
  %119 = call i32 @H5VL_free_object(ptr noundef %118)
  %120 = icmp slt i32 %119, 0
  br i1 %120, label %121, label %134

121:                                              ; preds = %113
  br label %122

122:                                              ; preds = %121
  br label %123

123:                                              ; preds = %122
  br label %124

124:                                              ; preds = %123
  %125 = load i64, ptr @H5E_DATATYPE_g, align 8
  %126 = load i64, ptr @H5E_CANTCLOSEOBJ_g, align 8
  %127 = call i32 (ptr, ptr, i32, i64, i64, ptr, ...) @H5E_printf_stack(ptr noundef @.str.2, ptr noundef @__func__.H5T_copy, i32 noundef 3848, i64 noundef %125, i64 noundef %126, ptr noundef @.str.220)
  br label %128

128:                                              ; preds = %124
  store i8 1, ptr %8, align 1
  %129 = load i8, ptr %8, align 1
  %130 = trunc i8 %129 to i1
  %131 = zext i1 %130 to i8
  store i8 %131, ptr %8, align 1
  br label %132

132:                                              ; preds = %128
  store ptr null, ptr %7, align 8
  br label %133

133:                                              ; preds = %132
  br label %134

134:                                              ; preds = %133, %113, %106
  %135 = load ptr, ptr %5, align 8
  %136 = getelementptr inbounds %struct.H5T_t, ptr %135, i32 0, i32 1
  %137 = load ptr, ptr %136, align 8
  %138 = call ptr @H5FL_reg_free(ptr noundef @H5_H5T_shared_t_reg_free_list, ptr noundef %137)
  %139 = load ptr, ptr %5, align 8
  %140 = getelementptr inbounds %struct.H5T_t, ptr %139, i32 0, i32 1
  store ptr %138, ptr %140, align 8
  %141 = load ptr, ptr %5, align 8
  %142 = call ptr @H5FL_reg_free(ptr noundef @H5_H5T_t_reg_free_list, ptr noundef %141)
  store ptr %142, ptr %5, align 8
  br label %143

143:                                              ; preds = %134, %103
  br label %144

144:                                              ; preds = %143, %100
  %145 = load ptr, ptr %7, align 8
  ret ptr %145
}