; Function Attrs: nounwind uwtable
define ptr @H5T_copy(ptr noundef %0, i32 noundef %1) local_unnamed_addr #0 {
  %3 = tail call fastcc ptr @H5T__initiate_copy(ptr noundef %0)
  %4 = icmp eq ptr %3, null
  br i1 %4, label %5, label %9

5:                                                ; preds = %2
  %6 = load i64, ptr @H5E_DATATYPE_g, align 8
  %7 = load i64, ptr @H5E_CANTCOPY_g, align 8
  %8 = tail call i32 (ptr, ptr, i32, i64, i64, ptr, ...) @H5E_printf_stack(ptr noundef nonnull @.str.2, ptr noundef nonnull @__func__.H5T_copy, i32 noundef 3808, i64 noundef %6, i64 noundef %7, ptr noundef nonnull @.str.298) #17
  br label %.thread

9:                                                ; preds = %2
  switch i32 %1, label %16 [
    i32 0, label %.sink.split
    i32 1, label %10
  ]

10:                                               ; preds = %9
  %11 = getelementptr inbounds i8, ptr %0, i64 40
  %12 = load ptr, ptr %11, align 8
  %13 = getelementptr inbounds i8, ptr %12, i64 8
  %14 = load i32, ptr %13, align 8
  switch i32 %14, label %23 [
    i32 4, label %.sink.split
    i32 2, label %15
  ]

15:                                               ; preds = %10
  br label %.sink.split

16:                                               ; preds = %9
  %17 = load i64, ptr @H5E_DATATYPE_g, align 8
  %18 = load i64, ptr @H5E_BADTYPE_g, align 8
  %19 = tail call i32 (ptr, ptr, i32, i64, i64, ptr, ...) @H5E_printf_stack(ptr noundef nonnull @.str.2, ptr noundef nonnull @__func__.H5T_copy, i32 noundef 3833, i64 noundef %17, i64 noundef %18, ptr noundef nonnull @.str.299) #17
  br label %31

.sink.split:                                      ; preds = %10, %9, %15
  %.sink = phi i32 [ 1, %15 ], [ %1, %9 ], [ 3, %10 ]
  %.024.ph = phi ptr [ @H5T__copy_all, %15 ], [ @H5T__copy_transient, %9 ], [ @H5T__copy_all, %10 ]
  %20 = getelementptr inbounds i8, ptr %3, i64 40
  %21 = load ptr, ptr %20, align 8
  %22 = getelementptr inbounds i8, ptr %21, i64 8
  store i32 %.sink, ptr %22, align 8
  br label %23

23:                                               ; preds = %.sink.split, %10
  %.024 = phi ptr [ @H5T__copy_all, %10 ], [ %.024.ph, %.sink.split ]
  %24 = icmp eq i32 %1, 0
  %25 = tail call fastcc i32 @H5T__complete_copy(ptr noundef nonnull %3, ptr noundef %0, ptr noundef null, i1 noundef zeroext %24, ptr noundef nonnull %.024)
  %26 = icmp slt i32 %25, 0
  br i1 %26, label %27, label %.thread

27:                                               ; preds = %23
  %28 = load i64, ptr @H5E_DATATYPE_g, align 8
  %29 = load i64, ptr @H5E_CANTINIT_g, align 8
  %30 = tail call i32 (ptr, ptr, i32, i64, i64, ptr, ...) @H5E_printf_stack(ptr noundef nonnull @.str.2, ptr noundef nonnull @__func__.H5T_copy, i32 noundef 3838, i64 noundef %28, i64 noundef %29, ptr noundef nonnull @.str.300) #17
  br label %31

31:                                               ; preds = %16, %27
  %32 = getelementptr inbounds i8, ptr %3, i64 40
  %33 = load ptr, ptr %32, align 8
  %34 = getelementptr inbounds i8, ptr %33, i64 40
  %35 = load ptr, ptr %34, align 8
  %.not = icmp eq ptr %35, null
  br i1 %.not, label %43, label %36

36:                                               ; preds = %31
  %37 = tail call i32 @H5VL_free_object(ptr noundef nonnull %35) #17
  %38 = icmp slt i32 %37, 0
  br i1 %38, label %39, label %43

39:                                               ; preds = %36
  %40 = load i64, ptr @H5E_DATATYPE_g, align 8
  %41 = load i64, ptr @H5E_CANTCLOSEOBJ_g, align 8
  %42 = tail call i32 (ptr, ptr, i32, i64, i64, ptr, ...) @H5E_printf_stack(ptr noundef nonnull @.str.2, ptr noundef nonnull @__func__.H5T_copy, i32 noundef 3848, i64 noundef %40, i64 noundef %41, ptr noundef nonnull @.str.220) #17
  br label %43

43:                                               ; preds = %39, %36, %31
  %44 = load ptr, ptr %32, align 8
  %45 = tail call ptr @H5FL_reg_free(ptr noundef nonnull @H5_H5T_shared_t_reg_free_list, ptr noundef %44) #17
  store ptr %45, ptr %32, align 8
  %46 = tail call ptr @H5FL_reg_free(ptr noundef nonnull @H5_H5T_t_reg_free_list, ptr noundef nonnull %3) #17
  br label %.thread

.thread:                                          ; preds = %5, %23, %43
  %.2 = phi ptr [ null, %43 ], [ %3, %23 ], [ null, %5 ]
  ret ptr %.2
}